target datalayout = "e-m:e-p270:32:32-p271:32:32-p272:64:64-i64:64-i128:128-f80:128-n8:16:32:64-S128"
target triple = "x86_64-pc-linux-gnu"

%struct.Abc_Frame_t_ = type { ptr, ptr, ptr, ptr, ptr, ptr, ptr, ptr, ptr, ptr, i32, i32, i32, i32, i32, ptr, float, float, i32, i32, ptr, ptr, ptr, double, double, ptr, ptr, ptr, ptr, ptr, ptr, ptr, ptr, ptr, ptr, ptr, ptr, float, ptr, i32, ptr, ptr, ptr, ptr, ptr, i32, i32, i32, i32, i32, i32, ptr, ptr, ptr, ptr, ptr, ptr, i32, i32, ptr, ptr, ptr, ptr, ptr, ptr, ptr, ptr, ptr, ptr, ptr, ptr, ptr, ptr, ptr, ptr, ptr, ptr, ptr, ptr, ptr, ptr, ptr, ptr, ptr, ptr, ptr, ptr, ptr, ptr }

@globalUtilOptind = external global i32, align 4
@.str.18 = private unnamed_addr constant [62 x i8] c"\09-v     : toggle printing verbose information [default = %s]\0A\00", align 1
@.str.19 = private unnamed_addr constant [4 x i8] c"yes\00", align 1
@.str.20 = private unnamed_addr constant [3 x i8] c"no\00", align 1
@.str.21 = private unnamed_addr constant [35 x i8] c"\09-h     : print the command usage\0A\00", align 1
@.str.43 = private unnamed_addr constant [9 x i8] c"IOPSspvh\00", align 1
@.str.44 = private unnamed_addr constant [60 x i8] c"Command line switch \22-I\22 should be followed by an integer.\0A\00", align 1
@.str.45 = private unnamed_addr constant [60 x i8] c"Command line switch \22-O\22 should be followed by an integer.\0A\00", align 1
@.str.46 = private unnamed_addr constant [60 x i8] c"Command line switch \22-P\22 should be followed by an integer.\0A\00", align 1
@.str.47 = private unnamed_addr constant [60 x i8] c"Command line switch \22-S\22 should be followed by an integer.\0A\00", align 1
@.str.48 = private unnamed_addr constant [33 x i8] c"usage: |gen [-IOPS num] [-spvh]\0A\00", align 1
@.str.49 = private unnamed_addr constant [46 x i8] c"\09         generate random or specialized SOP\0A\00", align 1
@.str.50 = private unnamed_addr constant [47 x i8] c"\09-I num : the number of inputs [default = %d]\0A\00", align 1
@.str.51 = private unnamed_addr constant [48 x i8] c"\09-O num : the number of outputs [default = %d]\0A\00", align 1
@.str.52 = private unnamed_addr constant [49 x i8] c"\09-P num : the number of products [default = %d]\0A\00", align 1
@.str.53 = private unnamed_addr constant [57 x i8] c"\09-S num : ramdom seed (0 <= num <= 1000) [default = %d]\0A\00", align 1
@.str.54 = private unnamed_addr constant [65 x i8] c"\09-s     : toggle generating sorter as a PLA file [default = %s]\0A\00", align 1
@.str.55 = private unnamed_addr constant [59 x i8] c"\09-p     : toggle generating prime detector [default = %s]\0A\00", align 1

; Function Attrs: inlinehint nounwind uwtable
define internal void @Pla_AbcUpdateMan(ptr noundef %0, ptr noundef %1) #2 {
  %3 = alloca ptr, align 8
  %4 = alloca ptr, align 8
  store ptr %0, ptr %3, align 8, !tbaa !3
  store ptr %1, ptr %4, align 8, !tbaa !12
  %5 = load ptr, ptr %3, align 8, !tbaa !3
  call void @Pla_AbcFreeMan(ptr noundef %5)
  %6 = load ptr, ptr %4, align 8, !tbaa !12
  %7 = load ptr, ptr %3, align 8, !tbaa !3
  %8 = getelementptr inbounds nuw %struct.Abc_Frame_t_, ptr %7, i32 0, i32 76
  store ptr %6, ptr %8, align 8, !tbaa !34
  ret void
}

; Function Attrs: inlinehint nounwind willreturn memory(read) uwtable
define available_externally i32 @atoi(ptr noundef nonnull %0) #7 {
  %2 = alloca ptr, align 8
  store ptr %0, ptr %2, align 8, !tbaa !14
  %3 = load ptr, ptr %2, align 8, !tbaa !14
  %4 = call i64 @strtol(ptr noundef %3, ptr noundef null, i32 noundef 10) #8
  %5 = trunc i64 %4 to i32
  ret i32 %5
}

; Function Attrs: nounwind uwtable
define internal i32 @Abc_CommandGen(ptr noundef %0, i32 noundef %1, ptr noundef %2) #0 {
  %4 = alloca i32, align 4
  %5 = alloca ptr, align 8
  %6 = alloca i32, align 4
  %7 = alloca ptr, align 8
  %8 = alloca ptr, align 8
  %9 = alloca i32, align 4
  %10 = alloca i32, align 4
  %11 = alloca i32, align 4
  %12 = alloca i32, align 4
  %13 = alloca i32, align 4
  %14 = alloca i32, align 4
  %15 = alloca i32, align 4
  %16 = alloca i32, align 4
  %17 = alloca i32, align 4
  store ptr %0, ptr %5, align 8, !tbaa !3
  store i32 %1, ptr %6, align 4, !tbaa !8
  store ptr %2, ptr %7, align 8, !tbaa !10
  call void @llvm.lifetime.start.p0(i64 8, ptr %8) #8
  store ptr null, ptr %8, align 8, !tbaa !12
  call void @llvm.lifetime.start.p0(i64 4, ptr %9) #8
  store i32 8, ptr %9, align 4, !tbaa !8
  call void @llvm.lifetime.start.p0(i64 4, ptr %10) #8
  store i32 1, ptr %10, align 4, !tbaa !8
  call void @llvm.lifetime.start.p0(i64 4, ptr %11) #8
  store i32 20, ptr %11, align 4, !tbaa !8
  call void @llvm.lifetime.start.p0(i64 4, ptr %12) #8
  store i32 0, ptr %12, align 4, !tbaa !8
  call void @llvm.lifetime.start.p0(i64 4, ptr %13) #8
  store i32 0, ptr %13, align 4, !tbaa !8
  call void @llvm.lifetime.start.p0(i64 4, ptr %14) #8
  store i32 0, ptr %14, align 4, !tbaa !8
  call void @llvm.lifetime.start.p0(i64 4, ptr %15) #8
  call void @llvm.lifetime.start.p0(i64 4, ptr %16) #8
  store i32 0, ptr %16, align 4, !tbaa !8
  call void (...) @Extra_UtilGetoptReset()
  br label %18

18:                                               ; preds = %108, %3
  %19 = load i32, ptr %6, align 4, !tbaa !8
  %20 = load ptr, ptr %7, align 8, !tbaa !10
  %21 = call i32 @Extra_UtilGetopt(i32 noundef %19, ptr noundef %20, ptr noundef @.str.43)
  store i32 %21, ptr %15, align 4, !tbaa !8
  %22 = icmp ne i32 %21, -1
  br i1 %22, label %23, label %109

23:                                               ; preds = %18
  %24 = load i32, ptr %15, align 4, !tbaa !8
  switch i32 %24, label %107 [
    i32 73, label %25
    i32 79, label %43
    i32 80, label %61
    i32 83, label %79
    i32 115, label %97
    i32 112, label %100
    i32 118, label %103
    i32 104, label %106
  ]

25:                                               ; preds = %23
  %26 = load i32, ptr @globalUtilOptind, align 4, !tbaa !8
  %27 = load i32, ptr %6, align 4, !tbaa !8
  %28 = icmp sge i32 %26, %27
  br i1 %28, label %29, label %30

29:                                               ; preds = %25
  call void (i32, ptr, ...) @Abc_Print(i32 noundef -1, ptr noundef @.str.44)
  br label %141

30:                                               ; preds = %25
  %31 = load ptr, ptr %7, align 8, !tbaa !10
  %32 = load i32, ptr @globalUtilOptind, align 4, !tbaa !8
  %33 = sext i32 %32 to i64
  %34 = getelementptr inbounds ptr, ptr %31, i64 %33
  %35 = load ptr, ptr %34, align 8, !tbaa !14
  %36 = call i32 @atoi(ptr noundef %35) #9
  store i32 %36, ptr %9, align 4, !tbaa !8
  %37 = load i32, ptr @globalUtilOptind, align 4, !tbaa !8
  %38 = add nsw i32 %37, 1
  store i32 %38, ptr @globalUtilOptind, align 4, !tbaa !8
  %39 = load i32, ptr %9, align 4, !tbaa !8
  %40 = icmp slt i32 %39, 0
  br i1 %40, label %41, label %42

41:                                               ; preds = %30
  br label %141

42:                                               ; preds = %30
  br label %108

43:                                               ; preds = %23
  %44 = load i32, ptr @globalUtilOptind, align 4, !tbaa !8
  %45 = load i32, ptr %6, align 4, !tbaa !8
  %46 = icmp sge i32 %44, %45
  br i1 %46, label %47, label %48

47:                                               ; preds = %43
  call void (i32, ptr, ...) @Abc_Print(i32 noundef -1, ptr noundef @.str.45)
  br label %141

48:                                               ; preds = %43
  %49 = load ptr, ptr %7, align 8, !tbaa !10
  %50 = load i32, ptr @globalUtilOptind, align 4, !tbaa !8
  %51 = sext i32 %50 to i64
  %52 = getelementptr inbounds ptr, ptr %49, i64 %51
  %53 = load ptr, ptr %52, align 8, !tbaa !14
  %54 = call i32 @atoi(ptr noundef %53) #9
  store i32 %54, ptr %10, align 4, !tbaa !8
  %55 = load i32, ptr @globalUtilOptind, align 4, !tbaa !8
  %56 = add nsw i32 %55, 1
  store i32 %56, ptr @globalUtilOptind, align 4, !tbaa !8
  %57 = load i32, ptr %10, align 4, !tbaa !8
  %58 = icmp slt i32 %57, 0
  br i1 %58, label %59, label %60

59:                                               ; preds = %48
  br label %141

60:                                               ; preds = %48
  br label %108

61:                                               ; preds = %23
  %62 = load i32, ptr @globalUtilOptind, align 4, !tbaa !8
  %63 = load i32, ptr %6, align 4, !tbaa !8
  %64 = icmp sge i32 %62, %63
  br i1 %64, label %65, label %66

65:                                               ; preds = %61
  call void (i32, ptr, ...) @Abc_Print(i32 noundef -1, ptr noundef @.str.46)
  br label %141

66:                                               ; preds = %61
  %67 = load ptr, ptr %7, align 8, !tbaa !10
  %68 = load i32, ptr @globalUtilOptind, align 4, !tbaa !8
  %69 = sext i32 %68 to i64
  %70 = getelementptr inbounds ptr, ptr %67, i64 %69
  %71 = load ptr, ptr %70, align 8, !tbaa !14
  %72 = call i32 @atoi(ptr noundef %71) #9
  store i32 %72, ptr %11, align 4, !tbaa !8
  %73 = load i32, ptr @globalUtilOptind, align 4, !tbaa !8
  %74 = add nsw i32 %73, 1
  store i32 %74, ptr @globalUtilOptind, align 4, !tbaa !8
  %75 = load i32, ptr %11, align 4, !tbaa !8
  %76 = icmp slt i32 %75, 0
  br i1 %76, label %77, label %78

77:                                               ; preds = %66
  br label %141

78:                                               ; preds = %66
  br label %108

79:                                               ; preds = %23
  %80 = load i32, ptr @globalUtilOptind, align 4, !tbaa !8
  %81 = load i32, ptr %6, align 4, !tbaa !8
  %82 = icmp sge i32 %80, %81
  br i1 %82, label %83, label %84

83:                                               ; preds = %79
  call void (i32, ptr, ...) @Abc_Print(i32 noundef -1, ptr noundef @.str.47)
  br label %141

84:                                               ; preds = %79
  %85 = load ptr, ptr %7, align 8, !tbaa !10
  %86 = load i32, ptr @globalUtilOptind, align 4, !tbaa !8
  %87 = sext i32 %86 to i64
  %88 = getelementptr inbounds ptr, ptr %85, i64 %87
  %89 = load ptr, ptr %88, align 8, !tbaa !14
  %90 = call i32 @atoi(ptr noundef %89) #9
  store i32 %90, ptr %12, align 4, !tbaa !8
  %91 = load i32, ptr @globalUtilOptind, align 4, !tbaa !8
  %92 = add nsw i32 %91, 1
  store i32 %92, ptr @globalUtilOptind, align 4, !tbaa !8
  %93 = load i32, ptr %12, align 4, !tbaa !8
  %94 = icmp slt i32 %93, 0
  br i1 %94, label %95, label %96

95:                                               ; preds = %84
  br label %141

96:                                               ; preds = %84
  br label %108

97:                                               ; preds = %23
  %98 = load i32, ptr %13, align 4, !tbaa !8
  %99 = xor i32 %98, 1
  store i32 %99, ptr %13, align 4, !tbaa !8
  br label %108

100:                                              ; preds = %23
  %101 = load i32, ptr %14, align 4, !tbaa !8
  %102 = xor i32 %101, 1
  store i32 %102, ptr %14, align 4, !tbaa !8
  br label %108

103:                                              ; preds = %23
  %104 = load i32, ptr %16, align 4, !tbaa !8
  %105 = xor i32 %104, 1
  store i32 %105, ptr %16, align 4, !tbaa !8
  br label %108

106:                                              ; preds = %23
  br label %141

107:                                              ; preds = %23
  br label %141

108:                                              ; preds = %103, %100, %97, %96, %78, %60, %42
  br label %18, !llvm.loop !30

109:                                              ; preds = %18
  %110 = load i32, ptr %13, align 4, !tbaa !8
  %111 = icmp ne i32 %110, 0
  br i1 %111, label %112, label %114

112:                                              ; preds = %109
  %113 = load i32, ptr %9, align 4, !tbaa !8
  call void @Pla_GenSorter(i32 noundef %113)
  br label %138

114:                                              ; preds = %109
  %115 = load i32, ptr %14, align 4, !tbaa !8
  %116 = icmp ne i32 %115, 0
  br i1 %116, label %117, label %120

117:                                              ; preds = %114
  %118 = load i32, ptr %9, align 4, !tbaa !8
  %119 = call ptr @Pla_ManPrimesDetector(i32 noundef %118)
  store ptr %119, ptr %8, align 8, !tbaa !12
  br label %137

120:                                              ; preds = %114
  %121 = call i32 @Gia_ManRandom(i32 noundef 1)
  store i32 0, ptr %15, align 4, !tbaa !8
  br label %122

122:                                              ; preds = %128, %120
  %123 = load i32, ptr %15, align 4, !tbaa !8
  %124 = load i32, ptr %12, align 4, !tbaa !8
  %125 = icmp slt i32 %123, %124
  br i1 %125, label %126, label %131

126:                                              ; preds = %122
  %127 = call i32 @Gia_ManRandom(i32 noundef 0)
  br label %128

128:                                              ; preds = %126
  %129 = load i32, ptr %15, align 4, !tbaa !8
  %130 = add nsw i32 %129, 1
  store i32 %130, ptr %15, align 4, !tbaa !8
  br label %122, !llvm.loop !31

131:                                              ; preds = %122
  %132 = load i32, ptr %9, align 4, !tbaa !8
  %133 = load i32, ptr %10, align 4, !tbaa !8
  %134 = load i32, ptr %11, align 4, !tbaa !8
  %135 = load i32, ptr %16, align 4, !tbaa !8
  %136 = call ptr @Pla_ManGenerate(i32 noundef %132, i32 noundef %133, i32 noundef %134, i32 noundef %135)
  store ptr %136, ptr %8, align 8, !tbaa !12
  br label %137

137:                                              ; preds = %131, %117
  br label %138

138:                                              ; preds = %137, %112
  %139 = load ptr, ptr %5, align 8, !tbaa !3
  %140 = load ptr, ptr %8, align 8, !tbaa !12
  call void @Pla_AbcUpdateMan(ptr noundef %139, ptr noundef %140)
  store i32 0, ptr %4, align 4
  store i32 1, ptr %17, align 4
  br label %155

141:                                              ; preds = %107, %106, %95, %83, %77, %65, %59, %47, %41, %29
  call void (i32, ptr, ...) @Abc_Print(i32 noundef -2, ptr noundef @.str.48)
  call void (i32, ptr, ...) @Abc_Print(i32 noundef -2, ptr noundef @.str.49)
  %142 = load i32, ptr %9, align 4, !tbaa !8
  call void (i32, ptr, ...) @Abc_Print(i32 noundef -2, ptr noundef @.str.50, i32 noundef %142)
  %143 = load i32, ptr %10, align 4, !tbaa !8
  call void (i32, ptr, ...) @Abc_Print(i32 noundef -2, ptr noundef @.str.51, i32 noundef %143)
  %144 = load i32, ptr %11, align 4, !tbaa !8
  call void (i32, ptr, ...) @Abc_Print(i32 noundef -2, ptr noundef @.str.52, i32 noundef %144)
  %145 = load i32, ptr %12, align 4, !tbaa !8
  call void (i32, ptr, ...) @Abc_Print(i32 noundef -2, ptr noundef @.str.53, i32 noundef %145)
  %146 = load i32, ptr %13, align 4, !tbaa !8
  %147 = icmp ne i32 %146, 0
  %148 = select i1 %147, ptr @.str.19, ptr @.str.20
  call void (i32, ptr, ...) @Abc_Print(i32 noundef -2, ptr noundef @.str.54, ptr noundef %148)
  %149 = load i32, ptr %14, align 4, !tbaa !8
  %150 = icmp ne i32 %149, 0
  %151 = select i1 %150, ptr @.str.19, ptr @.str.20
  call void (i32, ptr, ...) @Abc_Print(i32 noundef -2, ptr noundef @.str.55, ptr noundef %151)
  %152 = load i32, ptr %16, align 4, !tbaa !8
  %153 = icmp ne i32 %152, 0
  %154 = select i1 %153, ptr @.str.19, ptr @.str.20
  call void (i32, ptr, ...) @Abc_Print(i32 noundef -2, ptr noundef @.str.18, ptr noundef %154)
  call void (i32, ptr, ...) @Abc_Print(i32 noundef -2, ptr noundef @.str.21)
  store i32 1, ptr %4, align 4
  store i32 1, ptr %17, align 4
  br label %155

155:                                              ; preds = %141, %138
  call void @llvm.lifetime.end.p0(i64 4, ptr %16) #8
  call void @llvm.lifetime.end.p0(i64 4, ptr %15) #8
  call void @llvm.lifetime.end.p0(i64 4, ptr %14) #8
  call void @llvm.lifetime.end.p0(i64 4, ptr %13) #8
  call void @llvm.lifetime.end.p0(i64 4, ptr %12) #8
  call void @llvm.lifetime.end.p0(i64 4, ptr %11) #8
  call void @llvm.lifetime.end.p0(i64 4, ptr %10) #8
  call void @llvm.lifetime.end.p0(i64 4, ptr %9) #8
  call void @llvm.lifetime.end.p0(i64 8, ptr %8) #8
  %156 = load i32, ptr %4, align 4
  ret i32 %156
}