; Function Attrs: nounwind uwtable
define internal range(i32 0, 2) i32 @Abc_CommandGen(ptr noundef captures(none) %0, i32 noundef %1, ptr noundef %2) #0 {
  tail call void (...) @Extra_UtilGetoptReset() #10
  br label %.outer

.outer:                                           ; preds = %8, %3
  %.051.ph = phi i32 [ %13, %8 ], [ 8, %3 ]
  %.048.ph = phi i32 [ %.048.ph216, %8 ], [ 1, %3 ]
  %.045.ph = phi i32 [ %.045.ph223, %8 ], [ 20, %3 ]
  %.043.ph = phi i32 [ %.043.ph229, %8 ], [ 0, %3 ]
  %.041.ph = phi i32 [ %.041.ph234, %8 ], [ 0, %3 ]
  %.039.ph = phi i32 [ %.039.ph238, %8 ], [ 0, %3 ]
  %.0.ph = phi i32 [ %.0, %8 ], [ 0, %3 ]
  br label %.outer215

.outer215:                                        ; preds = %.outer, %18
  %.048.ph216 = phi i32 [ %.048.ph, %.outer ], [ %23, %18 ]
  %.045.ph217 = phi i32 [ %.045.ph, %.outer ], [ %.045.ph223, %18 ]
  %.043.ph218 = phi i32 [ %.043.ph, %.outer ], [ %.043.ph229, %18 ]
  %.041.ph219 = phi i32 [ %.041.ph, %.outer ], [ %.041.ph234, %18 ]
  %.039.ph220 = phi i32 [ %.039.ph, %.outer ], [ %.039.ph238, %18 ]
  %.0.ph221 = phi i32 [ %.0.ph, %.outer ], [ %.0, %18 ]
  br label %.outer222

.outer222:                                        ; preds = %.outer215, %28
  %.045.ph223 = phi i32 [ %.045.ph217, %.outer215 ], [ %33, %28 ]
  %.043.ph224 = phi i32 [ %.043.ph218, %.outer215 ], [ %.043.ph229, %28 ]
  %.041.ph225 = phi i32 [ %.041.ph219, %.outer215 ], [ %.041.ph234, %28 ]
  %.039.ph226 = phi i32 [ %.039.ph220, %.outer215 ], [ %.039.ph238, %28 ]
  %.0.ph227 = phi i32 [ %.0.ph221, %.outer215 ], [ %.0, %28 ]
  br label %.outer228

.outer228:                                        ; preds = %.outer222, %38
  %.043.ph229 = phi i32 [ %.043.ph224, %.outer222 ], [ %43, %38 ]
  %.041.ph230 = phi i32 [ %.041.ph225, %.outer222 ], [ %.041.ph234, %38 ]
  %.039.ph231 = phi i32 [ %.039.ph226, %.outer222 ], [ %.039.ph238, %38 ]
  %.0.ph232 = phi i32 [ %.0.ph227, %.outer222 ], [ %.0, %38 ]
  br label %.outer233

.outer233:                                        ; preds = %.outer228, %46
  %.041.ph234 = phi i32 [ %.041.ph230, %.outer228 ], [ %47, %46 ]
  %.039.ph235 = phi i32 [ %.039.ph231, %.outer228 ], [ %.039.ph238, %46 ]
  %.0.ph236 = phi i32 [ %.0.ph232, %.outer228 ], [ %.0, %46 ]
  br label %.outer237

.outer237:                                        ; preds = %.outer233, %48
  %.039.ph238 = phi i32 [ %.039.ph235, %.outer233 ], [ %49, %48 ]
  %.0.ph239 = phi i32 [ %.0.ph236, %.outer233 ], [ %.0, %48 ]
  br label %4

4:                                                ; preds = %.outer237, %50
  %.0 = phi i32 [ %51, %50 ], [ %.0.ph239, %.outer237 ]
  %5 = tail call i32 @Extra_UtilGetopt(i32 noundef %1, ptr noundef %2, ptr noundef nonnull @.str.43) #10
  switch i32 %5, label %.loopexit [
    i32 -1, label %52
    i32 73, label %6
    i32 79, label %16
    i32 80, label %26
    i32 83, label %36
    i32 115, label %46
    i32 112, label %48
    i32 118, label %50
  ]

6:                                                ; preds = %4
  %7 = load i32, ptr @globalUtilOptind, align 4, !tbaa !5
  %.not74 = icmp slt i32 %7, %1
  br i1 %.not74, label %8, label %.loopexit.sink.split

8:                                                ; preds = %6
  %9 = sext i32 %7 to i64
  %10 = getelementptr inbounds ptr, ptr %2, i64 %9
  %11 = load ptr, ptr %10, align 8, !tbaa !9
  %12 = tail call i64 @strtol(ptr noundef nonnull captures(none) %11, ptr noundef null, i32 noundef 10) #10
  %13 = trunc i64 %12 to i32
  %14 = add nsw i32 %7, 1
  store i32 %14, ptr @globalUtilOptind, align 4, !tbaa !5
  %15 = icmp slt i32 %13, 0
  br i1 %15, label %.loopexit, label %.outer, !llvm.loop !47

16:                                               ; preds = %4
  %17 = load i32, ptr @globalUtilOptind, align 4, !tbaa !5
  %.not73 = icmp slt i32 %17, %1
  br i1 %.not73, label %18, label %.loopexit.sink.split

18:                                               ; preds = %16
  %19 = sext i32 %17 to i64
  %20 = getelementptr inbounds ptr, ptr %2, i64 %19
  %21 = load ptr, ptr %20, align 8, !tbaa !9
  %22 = tail call i64 @strtol(ptr noundef nonnull captures(none) %21, ptr noundef null, i32 noundef 10) #10
  %23 = trunc i64 %22 to i32
  %24 = add nsw i32 %17, 1
  store i32 %24, ptr @globalUtilOptind, align 4, !tbaa !5
  %25 = icmp slt i32 %23, 0
  br i1 %25, label %.loopexit, label %.outer215, !llvm.loop !47

26:                                               ; preds = %4
  %27 = load i32, ptr @globalUtilOptind, align 4, !tbaa !5
  %.not72 = icmp slt i32 %27, %1
  br i1 %.not72, label %28, label %.loopexit.sink.split

28:                                               ; preds = %26
  %29 = sext i32 %27 to i64
  %30 = getelementptr inbounds ptr, ptr %2, i64 %29
  %31 = load ptr, ptr %30, align 8, !tbaa !9
  %32 = tail call i64 @strtol(ptr noundef nonnull captures(none) %31, ptr noundef null, i32 noundef 10) #10
  %33 = trunc i64 %32 to i32
  %34 = add nsw i32 %27, 1
  store i32 %34, ptr @globalUtilOptind, align 4, !tbaa !5
  %35 = icmp slt i32 %33, 0
  br i1 %35, label %.loopexit, label %.outer222, !llvm.loop !47

36:                                               ; preds = %4
  %37 = load i32, ptr @globalUtilOptind, align 4, !tbaa !5
  %.not71 = icmp slt i32 %37, %1
  br i1 %.not71, label %38, label %.loopexit.sink.split

38:                                               ; preds = %36
  %39 = sext i32 %37 to i64
  %40 = getelementptr inbounds ptr, ptr %2, i64 %39
  %41 = load ptr, ptr %40, align 8, !tbaa !9
  %42 = tail call i64 @strtol(ptr noundef nonnull captures(none) %41, ptr noundef null, i32 noundef 10) #10
  %43 = trunc i64 %42 to i32
  %44 = add nsw i32 %37, 1
  store i32 %44, ptr @globalUtilOptind, align 4, !tbaa !5
  %45 = icmp slt i32 %43, 0
  br i1 %45, label %.loopexit, label %.outer228, !llvm.loop !47

46:                                               ; preds = %4
  %47 = xor i32 %.041.ph234, 1
  br label %.outer233, !llvm.loop !47

48:                                               ; preds = %4
  %49 = xor i32 %.039.ph238, 1
  br label %.outer237, !llvm.loop !47

50:                                               ; preds = %4
  %51 = xor i32 %.0, 1
  br label %4, !llvm.loop !47

52:                                               ; preds = %4
  %.not69 = icmp eq i32 %.041.ph234, 0
  br i1 %.not69, label %54, label %53

53:                                               ; preds = %52
  tail call void @Pla_GenSorter(i32 noundef %.051.ph) #10
  br label %62

54:                                               ; preds = %52
  %.not70 = icmp eq i32 %.039.ph238, 0
  br i1 %.not70, label %57, label %55

55:                                               ; preds = %54
  %56 = tail call ptr @Pla_ManPrimesDetector(i32 noundef %.051.ph) #10
  br label %62

57:                                               ; preds = %54
  %58 = tail call i32 @Gia_ManRandom(i32 noundef 1) #10
  %.not = icmp eq i32 %.043.ph229, 0
  br i1 %.not, label %._crit_edge, label %.lr.ph

.lr.ph:                                           ; preds = %57, %.lr.ph
  %.038116 = phi i32 [ %60, %.lr.ph ], [ 0, %57 ]
  %59 = tail call i32 @Gia_ManRandom(i32 noundef 0) #10
  %60 = add nuw nsw i32 %.038116, 1
  %exitcond.not = icmp eq i32 %60, %.043.ph229
  br i1 %exitcond.not, label %._crit_edge, label %.lr.ph, !llvm.loop !48

._crit_edge:                                      ; preds = %.lr.ph, %57
  %61 = tail call ptr @Pla_ManGenerate(i32 noundef %.051.ph, i32 noundef %.048.ph216, i32 noundef %.045.ph223, i32 noundef %.0) #10
  br label %62

62:                                               ; preds = %55, %._crit_edge, %53
  %.054 = phi ptr [ null, %53 ], [ %56, %55 ], [ %61, %._crit_edge ]
  %63 = getelementptr i8, ptr %0, i64 544
  %.val.i = load ptr, ptr %63, align 8, !tbaa !12
  tail call fastcc void @Pla_AbcFreeMan(ptr %.val.i)
  store ptr %.054, ptr %63, align 8, !tbaa !12
  br label %67

.loopexit.sink.split:                             ; preds = %6, %26, %36, %16
  %.str.47.sink = phi ptr [ @.str.47, %36 ], [ @.str.46, %26 ], [ @.str.45, %16 ], [ @.str.44, %6 ]
  tail call void (i32, ptr, ...) @Abc_Print(i32 noundef -1, ptr noundef nonnull %.str.47.sink)
  br label %.loopexit

.loopexit:                                        ; preds = %18, %38, %4, %28, %8, %.loopexit.sink.split
  %.152 = phi i32 [ %.051.ph, %.loopexit.sink.split ], [ %.051.ph, %18 ], [ %.051.ph, %38 ], [ %.051.ph, %4 ], [ %.051.ph, %28 ], [ %13, %8 ]
  %.149 = phi i32 [ %.048.ph216, %.loopexit.sink.split ], [ %.048.ph216, %28 ], [ %.048.ph216, %4 ], [ %.048.ph216, %38 ], [ %23, %18 ], [ %.048.ph216, %8 ]
  %.146 = phi i32 [ %.045.ph223, %.loopexit.sink.split ], [ %.045.ph223, %38 ], [ %.045.ph223, %4 ], [ %33, %28 ], [ %.045.ph223, %18 ], [ %.045.ph223, %8 ]
  %.144 = phi i32 [ %.043.ph229, %.loopexit.sink.split ], [ %.043.ph229, %4 ], [ %43, %38 ], [ %.043.ph229, %28 ], [ %.043.ph229, %18 ], [ %.043.ph229, %8 ]
  tail call void (i32, ptr, ...) @Abc_Print(i32 noundef -2, ptr noundef nonnull @.str.48)
  tail call void (i32, ptr, ...) @Abc_Print(i32 noundef -2, ptr noundef nonnull @.str.49)
  tail call void (i32, ptr, ...) @Abc_Print(i32 noundef -2, ptr noundef nonnull @.str.50, i32 noundef %.152)
  tail call void (i32, ptr, ...) @Abc_Print(i32 noundef -2, ptr noundef nonnull @.str.51, i32 noundef %.149)
  tail call void (i32, ptr, ...) @Abc_Print(i32 noundef -2, ptr noundef nonnull @.str.52, i32 noundef %.146)
  tail call void (i32, ptr, ...) @Abc_Print(i32 noundef -2, ptr noundef nonnull @.str.53, i32 noundef %.144)
  %.not75 = icmp eq i32 %.041.ph234, 0
  %64 = select i1 %.not75, ptr @.str.20, ptr @.str.19
  tail call void (i32, ptr, ...) @Abc_Print(i32 noundef -2, ptr noundef nonnull @.str.54, ptr noundef nonnull %64)
  %.not76 = icmp eq i32 %.039.ph238, 0
  %65 = select i1 %.not76, ptr @.str.20, ptr @.str.19
  tail call void (i32, ptr, ...) @Abc_Print(i32 noundef -2, ptr noundef nonnull @.str.55, ptr noundef nonnull %65)
  %.not77 = icmp eq i32 %.0, 0
  %66 = select i1 %.not77, ptr @.str.20, ptr @.str.19
  tail call void (i32, ptr, ...) @Abc_Print(i32 noundef -2, ptr noundef nonnull @.str.18, ptr noundef nonnull %66)
  tail call void (i32, ptr, ...) @Abc_Print(i32 noundef -2, ptr noundef nonnull @.str.21)
  br label %67

67:                                               ; preds = %.loopexit, %62
  %.055 = phi i32 [ 1, %.loopexit ], [ 0, %62 ]
  ret i32 %.055
}